target datalayout = "e-m:e-p270:32:32-p271:32:32-p272:64:64-i64:64-i128:128-f80:128-n8:16:32:64-S128"
target triple = "x86_64-pc-linux-gnu"

%struct.used_atom = type { i32, ptr, i32, i32, %union.anon }
%union.anon = type { %struct.anon.1 }
%struct.anon.1 = type { i32, %struct.process_trailer_options, ptr, i32 }
%struct.process_trailer_options = type { i32, i32, i32, i32, i32, i32, i32, i32, ptr, ptr, ptr, ptr }

@.str.24 = private unnamed_addr constant [1 x i8] zeroinitializer, align 1
@git_gettext_enabled = external global i32, align 4
@.str.54 = private unnamed_addr constant [8 x i8] c"subject\00", align 1
@.str.55 = private unnamed_addr constant [5 x i8] c"body\00", align 1
@.str.56 = private unnamed_addr constant [9 x i8] c"trailers\00", align 1
@.str.57 = private unnamed_addr constant [9 x i8] c"contents\00", align 1
@.str.58 = private unnamed_addr constant [10 x i8] c"signature\00", align 1
@.str.110 = private unnamed_addr constant [5 x i8] c"size\00", align 1
@.str.111 = private unnamed_addr constant [10 x i8] c"trailers:\00", align 1
@.str.112 = private unnamed_addr constant [7 x i8] c"lines=\00", align 1
@.str.113 = private unnamed_addr constant [42 x i8] c"positive value expected contents:lines=%s\00", align 1

; Function Attrs: inlinehint nounwind uwtable
define internal ptr @_(ptr noundef %0) #1 {
  %2 = alloca ptr, align 8
  %3 = alloca ptr, align 8
  store ptr %0, ptr %3, align 8, !tbaa !13
  %4 = load ptr, ptr %3, align 8, !tbaa !13
  %5 = load i8, ptr %4, align 1, !tbaa !14
  %6 = icmp ne i8 %5, 0
  br i1 %6, label %8, label %7

7:                                                ; preds = %1
  store ptr @.str.24, ptr %2, align 8
  br label %16

8:                                                ; preds = %1
  %9 = load i32, ptr @git_gettext_enabled, align 4, !tbaa !15
  %10 = icmp ne i32 %9, 0
  br i1 %10, label %13, label %11

11:                                               ; preds = %8
  %12 = load ptr, ptr %3, align 8, !tbaa !13
  store ptr %12, ptr %2, align 8
  br label %16

13:                                               ; preds = %8
  %14 = load ptr, ptr %3, align 8, !tbaa !13
  %15 = call ptr @dcgettext(ptr noundef null, ptr noundef %14, i32 noundef 5) #11
  store ptr %15, ptr %2, align 8
  br label %16

16:                                               ; preds = %13, %11, %7
  %17 = load ptr, ptr %2, align 8
  ret ptr %17
}

; Function Attrs: inlinehint nounwind uwtable
define internal zeroext i1 @skip_prefix(ptr noundef %0, ptr noundef %1, ptr noundef %2) #1 {
  %4 = alloca i1, align 1
  %5 = alloca ptr, align 8
  %6 = alloca ptr, align 8
  %7 = alloca ptr, align 8
  store ptr %0, ptr %5, align 8, !tbaa !13
  store ptr %1, ptr %6, align 8, !tbaa !13
  store ptr %2, ptr %7, align 8, !tbaa !53
  br label %8

8:                                                ; preds = %16, %3
  %9 = load ptr, ptr %6, align 8, !tbaa !13
  %10 = load i8, ptr %9, align 1, !tbaa !14
  %11 = icmp ne i8 %10, 0
  br i1 %11, label %15, label %12

12:                                               ; preds = %8
  %13 = load ptr, ptr %5, align 8, !tbaa !13
  %14 = load ptr, ptr %7, align 8, !tbaa !53
  store ptr %13, ptr %14, align 8, !tbaa !13
  store i1 true, ptr %4, align 1
  br label %27

15:                                               ; preds = %8
  br label %16

16:                                               ; preds = %15
  %17 = load ptr, ptr %5, align 8, !tbaa !13
  %18 = getelementptr inbounds nuw i8, ptr %17, i32 1
  store ptr %18, ptr %5, align 8, !tbaa !13
  %19 = load i8, ptr %17, align 1, !tbaa !14
  %20 = sext i8 %19 to i32
  %21 = load ptr, ptr %6, align 8, !tbaa !13
  %22 = getelementptr inbounds nuw i8, ptr %21, i32 1
  store ptr %22, ptr %6, align 8, !tbaa !13
  %23 = load i8, ptr %21, align 1, !tbaa !14
  %24 = sext i8 %23 to i32
  %25 = icmp eq i32 %20, %24
  br i1 %25, label %8, label %26, !llvm.loop !55

26:                                               ; preds = %16
  store i1 false, ptr %4, align 1
  br label %27

27:                                               ; preds = %26, %12
  %28 = load i1, ptr %4, align 1
  ret i1 %28
}

; Function Attrs: nounwind uwtable
define internal i32 @contents_atom_parser(ptr noundef %0, ptr noundef %1, ptr noundef %2, ptr noundef %3) #0 {
  %5 = alloca i32, align 4
  %6 = alloca ptr, align 8
  %7 = alloca ptr, align 8
  %8 = alloca ptr, align 8
  %9 = alloca ptr, align 8
  store ptr %0, ptr %6, align 8, !tbaa !17
  store ptr %1, ptr %7, align 8, !tbaa !26
  store ptr %2, ptr %8, align 8, !tbaa !13
  store ptr %3, ptr %9, align 8, !tbaa !36
  %10 = load ptr, ptr %8, align 8, !tbaa !13
  %11 = icmp ne ptr %10, null
  br i1 %11, label %16, label %12

12:                                               ; preds = %4
  %13 = load ptr, ptr %7, align 8, !tbaa !26
  %14 = getelementptr inbounds nuw %struct.used_atom, ptr %13, i32 0, i32 4
  %15 = getelementptr inbounds nuw %struct.anon.1, ptr %14, i32 0, i32 0
  store i32 0, ptr %15, align 8, !tbaa !14
  br label %104

16:                                               ; preds = %4
  %17 = load ptr, ptr %8, align 8, !tbaa !13
  %18 = call i32 @strcmp(ptr noundef %17, ptr noundef @.str.55) #12
  %19 = icmp ne i32 %18, 0
  br i1 %19, label %24, label %20

20:                                               ; preds = %16
  %21 = load ptr, ptr %7, align 8, !tbaa !26
  %22 = getelementptr inbounds nuw %struct.used_atom, ptr %21, i32 0, i32 4
  %23 = getelementptr inbounds nuw %struct.anon.1, ptr %22, i32 0, i32 0
  store i32 1, ptr %23, align 8, !tbaa !14
  br label %103

24:                                               ; preds = %16
  %25 = load ptr, ptr %8, align 8, !tbaa !13
  %26 = call i32 @strcmp(ptr noundef %25, ptr noundef @.str.110) #12
  %27 = icmp ne i32 %26, 0
  br i1 %27, label %34, label %28

28:                                               ; preds = %24
  %29 = load ptr, ptr %7, align 8, !tbaa !26
  %30 = getelementptr inbounds nuw %struct.used_atom, ptr %29, i32 0, i32 2
  store i32 1, ptr %30, align 8, !tbaa !44
  %31 = load ptr, ptr %7, align 8, !tbaa !26
  %32 = getelementptr inbounds nuw %struct.used_atom, ptr %31, i32 0, i32 4
  %33 = getelementptr inbounds nuw %struct.anon.1, ptr %32, i32 0, i32 0
  store i32 3, ptr %33, align 8, !tbaa !14
  br label %102

34:                                               ; preds = %24
  %35 = load ptr, ptr %8, align 8, !tbaa !13
  %36 = call i32 @strcmp(ptr noundef %35, ptr noundef @.str.58) #12
  %37 = icmp ne i32 %36, 0
  br i1 %37, label %42, label %38

38:                                               ; preds = %34
  %39 = load ptr, ptr %7, align 8, !tbaa !26
  %40 = getelementptr inbounds nuw %struct.used_atom, ptr %39, i32 0, i32 4
  %41 = getelementptr inbounds nuw %struct.anon.1, ptr %40, i32 0, i32 0
  store i32 5, ptr %41, align 8, !tbaa !14
  br label %101

42:                                               ; preds = %34
  %43 = load ptr, ptr %8, align 8, !tbaa !13
  %44 = call i32 @strcmp(ptr noundef %43, ptr noundef @.str.54) #12
  %45 = icmp ne i32 %44, 0
  br i1 %45, label %50, label %46

46:                                               ; preds = %42
  %47 = load ptr, ptr %7, align 8, !tbaa !26
  %48 = getelementptr inbounds nuw %struct.used_atom, ptr %47, i32 0, i32 4
  %49 = getelementptr inbounds nuw %struct.anon.1, ptr %48, i32 0, i32 0
  store i32 6, ptr %49, align 8, !tbaa !14
  br label %100

50:                                               ; preds = %42
  %51 = load ptr, ptr %8, align 8, !tbaa !13
  %52 = call i32 @strcmp(ptr noundef %51, ptr noundef @.str.56) #12
  %53 = icmp ne i32 %52, 0
  br i1 %53, label %62, label %54

54:                                               ; preds = %50
  %55 = load ptr, ptr %6, align 8, !tbaa !17
  %56 = load ptr, ptr %7, align 8, !tbaa !26
  %57 = load ptr, ptr %9, align 8, !tbaa !36
  %58 = call i32 @trailers_atom_parser(ptr noundef %55, ptr noundef %56, ptr noundef null, ptr noundef %57)
  %59 = icmp ne i32 %58, 0
  br i1 %59, label %60, label %61

60:                                               ; preds = %54
  store i32 -1, ptr %5, align 4
  br label %105

61:                                               ; preds = %54
  br label %99

62:                                               ; preds = %50
  %63 = load ptr, ptr %8, align 8, !tbaa !13
  %64 = call zeroext i1 @skip_prefix(ptr noundef %63, ptr noundef @.str.111, ptr noundef %8)
  br i1 %64, label %65, label %74

65:                                               ; preds = %62
  %66 = load ptr, ptr %6, align 8, !tbaa !17
  %67 = load ptr, ptr %7, align 8, !tbaa !26
  %68 = load ptr, ptr %8, align 8, !tbaa !13
  %69 = load ptr, ptr %9, align 8, !tbaa !36
  %70 = call i32 @trailers_atom_parser(ptr noundef %66, ptr noundef %67, ptr noundef %68, ptr noundef %69)
  %71 = icmp ne i32 %70, 0
  br i1 %71, label %72, label %73

72:                                               ; preds = %65
  store i32 -1, ptr %5, align 4
  br label %105

73:                                               ; preds = %65
  br label %98

74:                                               ; preds = %62
  %75 = load ptr, ptr %8, align 8, !tbaa !13
  %76 = call zeroext i1 @skip_prefix(ptr noundef %75, ptr noundef @.str.112, ptr noundef %8)
  br i1 %76, label %77, label %93

77:                                               ; preds = %74
  %78 = load ptr, ptr %7, align 8, !tbaa !26
  %79 = getelementptr inbounds nuw %struct.used_atom, ptr %78, i32 0, i32 4
  %80 = getelementptr inbounds nuw %struct.anon.1, ptr %79, i32 0, i32 0
  store i32 4, ptr %80, align 8, !tbaa !14
  %81 = load ptr, ptr %8, align 8, !tbaa !13
  %82 = load ptr, ptr %7, align 8, !tbaa !26
  %83 = getelementptr inbounds nuw %struct.used_atom, ptr %82, i32 0, i32 4
  %84 = getelementptr inbounds nuw %struct.anon.1, ptr %83, i32 0, i32 3
  %85 = call i32 @strtoul_ui(ptr noundef %81, i32 noundef 10, ptr noundef %84)
  %86 = icmp ne i32 %85, 0
  br i1 %86, label %87, label %92

87:                                               ; preds = %77
  %88 = load ptr, ptr %9, align 8, !tbaa !36
  %89 = call ptr @_(ptr noundef @.str.113)
  %90 = load ptr, ptr %8, align 8, !tbaa !13
  %91 = call i32 (ptr, i32, ptr, ...) @strbuf_addf_ret(ptr noundef %88, i32 noundef -1, ptr noundef %89, ptr noundef %90)
  store i32 %91, ptr %5, align 4
  br label %105

92:                                               ; preds = %77
  br label %97

93:                                               ; preds = %74
  %94 = load ptr, ptr %9, align 8, !tbaa !36
  %95 = load ptr, ptr %8, align 8, !tbaa !13
  %96 = call i32 @err_bad_arg(ptr noundef %94, ptr noundef @.str.57, ptr noundef %95)
  store i32 %96, ptr %5, align 4
  br label %105

97:                                               ; preds = %92
  br label %98

98:                                               ; preds = %97, %73
  br label %99

99:                                               ; preds = %98, %61
  br label %100

100:                                              ; preds = %99, %46
  br label %101

101:                                              ; preds = %100, %38
  br label %102

102:                                              ; preds = %101, %28
  br label %103

103:                                              ; preds = %102, %20
  br label %104

104:                                              ; preds = %103, %12
  store i32 0, ptr %5, align 4
  br label %105

105:                                              ; preds = %104, %93, %87, %72, %60
  %106 = load i32, ptr %5, align 4
  ret i32 %106
}