; Function Attrs: nounwind uwtable
define internal range(i32 -1, 1) i32 @contents_atom_parser(ptr readnone captures(none) %0, ptr noundef %1, ptr noundef %2, ptr noundef %3) #0 {
  %.not = icmp eq ptr %2, null
  br i1 %.not, label %5, label %7

5:                                                ; preds = %4
  %6 = getelementptr inbounds nuw i8, ptr %1, i64 24
  store i32 0, ptr %6, align 8, !tbaa !15
  br label %49

7:                                                ; preds = %4
  %8 = tail call i32 @strcmp(ptr noundef nonnull dereferenceable(1) %2, ptr noundef nonnull dereferenceable(5) @.str.55) #24
  %.not17 = icmp eq i32 %8, 0
  br i1 %.not17, label %9, label %11

9:                                                ; preds = %7
  %10 = getelementptr inbounds nuw i8, ptr %1, i64 24
  store i32 1, ptr %10, align 8, !tbaa !15
  br label %49

11:                                               ; preds = %7
  %12 = tail call i32 @strcmp(ptr noundef nonnull dereferenceable(1) %2, ptr noundef nonnull dereferenceable(5) @.str.110) #24
  %.not18 = icmp eq i32 %12, 0
  br i1 %.not18, label %13, label %16

13:                                               ; preds = %11
  %14 = getelementptr inbounds nuw i8, ptr %1, i64 16
  store i32 1, ptr %14, align 8, !tbaa !39
  %15 = getelementptr inbounds nuw i8, ptr %1, i64 24
  store i32 3, ptr %15, align 8, !tbaa !15
  br label %49

16:                                               ; preds = %11
  %17 = tail call i32 @strcmp(ptr noundef nonnull dereferenceable(1) %2, ptr noundef nonnull dereferenceable(10) @.str.58) #24
  %.not19 = icmp eq i32 %17, 0
  br i1 %.not19, label %18, label %20

18:                                               ; preds = %16
  %19 = getelementptr inbounds nuw i8, ptr %1, i64 24
  store i32 5, ptr %19, align 8, !tbaa !15
  br label %49

20:                                               ; preds = %16
  %21 = tail call i32 @strcmp(ptr noundef nonnull dereferenceable(1) %2, ptr noundef nonnull dereferenceable(8) @.str.54) #24
  %.not20 = icmp eq i32 %21, 0
  br i1 %.not20, label %22, label %24

22:                                               ; preds = %20
  %23 = getelementptr inbounds nuw i8, ptr %1, i64 24
  store i32 6, ptr %23, align 8, !tbaa !15
  br label %49

24:                                               ; preds = %20
  %25 = tail call i32 @strcmp(ptr noundef nonnull dereferenceable(1) %2, ptr noundef nonnull dereferenceable(9) @.str.56) #24
  %.not21 = icmp eq i32 %25, 0
  br i1 %.not21, label %26, label %.preheader.preheader

.preheader.preheader:                             ; preds = %24
  %scevgep = getelementptr i8, ptr %2, i64 9
  br label %.preheader

26:                                               ; preds = %24
  %27 = getelementptr inbounds nuw i8, ptr %1, i64 24
  %28 = getelementptr inbounds nuw i8, ptr %1, i64 52
  store i32 1, ptr %28, align 4, !tbaa !15
  store i32 8, ptr %27, align 8, !tbaa !15
  br label %49

.preheader:                                       ; preds = %.preheader.preheader, %29
  %.07.i = phi ptr [ %31, %29 ], [ %2, %.preheader.preheader ]
  %.06.i.idx = phi i64 [ %.06.i.add, %29 ], [ 0, %.preheader.preheader ]
  %exitcond = icmp eq i64 %.06.i.idx, 9
  br i1 %exitcond, label %34, label %29

29:                                               ; preds = %.preheader
  %.06.i.ptr = getelementptr inbounds nuw i8, ptr @.str.111, i64 %.06.i.idx
  %30 = load i8, ptr %.06.i.ptr, align 1, !tbaa !15
  %31 = getelementptr inbounds nuw i8, ptr %.07.i, i64 1
  %32 = load i8, ptr %.07.i, align 1, !tbaa !15
  %.06.i.add = add nuw nsw i64 %.06.i.idx, 1
  %33 = icmp eq i8 %32, %30
  br i1 %33, label %.preheader, label %skip_prefix.exit.preheader, !llvm.loop !31

skip_prefix.exit.preheader:                       ; preds = %29
  %scevgep42 = getelementptr i8, ptr %2, i64 6
  br label %skip_prefix.exit

34:                                               ; preds = %.preheader
  %35 = tail call i32 @trailers_atom_parser(ptr poison, ptr noundef %1, ptr noundef nonnull %scevgep, ptr noundef %3)
  %.not24 = icmp eq i32 %35, 0
  br i1 %.not24, label %49, label %50

skip_prefix.exit:                                 ; preds = %skip_prefix.exit.preheader, %36
  %.07.i25 = phi ptr [ %38, %36 ], [ %2, %skip_prefix.exit.preheader ]
  %.06.i26.idx = phi i64 [ %.06.i26.add, %36 ], [ 0, %skip_prefix.exit.preheader ]
  %exitcond43 = icmp eq i64 %.06.i26.idx, 6
  br i1 %exitcond43, label %41, label %36

36:                                               ; preds = %skip_prefix.exit
  %.06.i26.ptr = getelementptr inbounds nuw i8, ptr @.str.112, i64 %.06.i26.idx
  %37 = load i8, ptr %.06.i26.ptr, align 1, !tbaa !15
  %38 = getelementptr inbounds nuw i8, ptr %.07.i25, i64 1
  %39 = load i8, ptr %.07.i25, align 1, !tbaa !15
  %.06.i26.add = add nuw nsw i64 %.06.i26.idx, 1
  %40 = icmp eq i8 %39, %37
  br i1 %40, label %skip_prefix.exit, label %skip_prefix.exit28, !llvm.loop !31

41:                                               ; preds = %skip_prefix.exit
  %42 = getelementptr inbounds nuw i8, ptr %1, i64 24
  store i32 4, ptr %42, align 8, !tbaa !15
  %43 = getelementptr inbounds nuw i8, ptr %1, i64 104
  %44 = tail call fastcc i32 @strtoul_ui(ptr noundef nonnull %scevgep42, ptr noundef nonnull %43)
  %.not23 = icmp eq i32 %44, 0
  br i1 %.not23, label %49, label %45

45:                                               ; preds = %41
  %46 = load i32, ptr @git_gettext_enabled, align 4, !tbaa !4
  %.not4.i = icmp eq i32 %46, 0
  br i1 %.not4.i, label %_.exit, label %47

47:                                               ; preds = %45
  %48 = tail call ptr @dcgettext(ptr noundef null, ptr noundef nonnull @.str.113, i32 noundef 5) #23
  br label %_.exit

_.exit:                                           ; preds = %45, %47
  %.0.i = phi ptr [ %48, %47 ], [ @.str.113, %45 ]
  tail call void (ptr, i32, ptr, ...) @strbuf_addf_ret(ptr noundef %3, i32 poison, ptr noundef %.0.i, ptr noundef nonnull %scevgep42)
  br label %50

skip_prefix.exit28:                               ; preds = %36
  tail call fastcc void @err_bad_arg(ptr noundef %3, ptr noundef nonnull @.str.57, ptr noundef nonnull %2)
  br label %50

49:                                               ; preds = %26, %9, %18, %41, %34, %22, %13, %5
  br label %50

50:                                               ; preds = %34, %49, %skip_prefix.exit28, %_.exit
  %.0 = phi i32 [ 0, %49 ], [ -1, %_.exit ], [ -1, %skip_prefix.exit28 ], [ -1, %34 ]
  ret i32 %.0
}